; Function Attrs: mustprogress nofree nounwind willreturn memory(read, inaccessiblemem: none) uwtable
define noundef i32 @_ZNK5arrow16KeyValueMetadata7FindKeyESt17basic_string_viewIcSt11char_traitsIcEE(ptr noundef nonnull readonly align 8 captures(none) dereferenceable(48) %0, i64 %1, ptr readonly captures(none) %2) local_unnamed_addr #8 align 2 personality ptr @__gxx_personality_v0 {
  %4 = getelementptr inbounds nuw i8, ptr %0, i64 8
  %5 = load ptr, ptr %4, align 8, !tbaa !18
  %6 = load ptr, ptr %0, align 8, !tbaa !33
  %.not13.not = icmp eq ptr %5, %6
  br i1 %.not13.not, label %.loopexit, label %.lr.ph.preheader

.lr.ph.preheader:                                 ; preds = %3
  %7 = ptrtoint ptr %5 to i64
  %8 = ptrtoint ptr %6 to i64
  %9 = sub i64 %7, %8
  %10 = ashr exact i64 %9, 5
  %umax = tail call i64 @llvm.umax.i64(i64 %10, i64 1)
  %11 = icmp eq i64 %1, 0
  br label %.lr.ph

.lr.ph:                                           ; preds = %.lr.ph.preheader, %20
  %.01014 = phi i64 [ %21, %20 ], [ 0, %.lr.ph.preheader ]
  %12 = getelementptr inbounds nuw %"class.std::__cxx11::basic_string", ptr %6, i64 %.01014
  %13 = load ptr, ptr %12, align 8, !tbaa !25
  %14 = getelementptr inbounds nuw i8, ptr %12, i64 8
  %15 = load i64, ptr %14, align 8, !tbaa !27
  %16 = icmp eq i64 %15, %1
  br i1 %16, label %17, label %20

17:                                               ; preds = %.lr.ph
  br i1 %11, label %_ZSteqIcSt11char_traitsIcEEbNSt15__type_identityISt17basic_string_viewIT_T0_EE4typeES6_.exit, label %_ZNSt11char_traitsIcE7compareEPKcS2_m.exit.i.i

_ZNSt11char_traitsIcE7compareEPKcS2_m.exit.i.i:   ; preds = %17
  %bcmp.i = tail call i32 @bcmp(ptr %13, ptr %2, i64 %1)
  %18 = icmp eq i32 %bcmp.i, 0
  br i1 %18, label %_ZSteqIcSt11char_traitsIcEEbNSt15__type_identityISt17basic_string_viewIT_T0_EE4typeES6_.exit, label %20

_ZSteqIcSt11char_traitsIcEEbNSt15__type_identityISt17basic_string_viewIT_T0_EE4typeES6_.exit: ; preds = %_ZNSt11char_traitsIcE7compareEPKcS2_m.exit.i.i, %17
  %19 = trunc i64 %.01014 to i32
  br label %.loopexit

20:                                               ; preds = %.lr.ph, %_ZNSt11char_traitsIcE7compareEPKcS2_m.exit.i.i
  %21 = add nuw i64 %.01014, 1
  %exitcond.not = icmp eq i64 %21, %umax
  br i1 %exitcond.not, label %.loopexit, label %.lr.ph, !llvm.loop !55

.loopexit:                                        ; preds = %20, %3, %_ZSteqIcSt11char_traitsIcEEbNSt15__type_identityISt17basic_string_viewIT_T0_EE4typeES6_.exit
  %spec.select = phi i32 [ %19, %_ZSteqIcSt11char_traitsIcEEbNSt15__type_identityISt17basic_string_viewIT_T0_EE4typeES6_.exit ], [ -1, %3 ], [ -1, %20 ]
  ret i32 %spec.select
}